; Function Attrs: mustprogress nounwind uwtable
define internal noundef zeroext i1 @_ZNK12_GLOBAL__N_125ParsedAttrInfoBPFFastCall20diagAppertainsToDeclERN5clang4SemaERKNS1_10ParsedAttrEPKNS1_4DeclE(ptr nocapture nonnull readnone align 8 %0, ptr noundef nonnull align 8 dereferenceable(17560) %1, ptr noundef nonnull align 8 dereferenceable(72) %2, ptr noundef %3) unnamed_addr #0 align 2 {
  %5 = alloca %"class.clang::SemaBase::SemaDiagnosticBuilder", align 8
  %6 = alloca i8, align 1
  %.not.i = icmp eq ptr %3, null
  br i1 %.not.i, label %_ZN12_GLOBAL__N_114isFunctionLikeEPKN5clang4DeclE.exit.thread, label %_ZN12_GLOBAL__N_114isFunctionLikeEPKN5clang4DeclE.exit

_ZN12_GLOBAL__N_114isFunctionLikeEPKN5clang4DeclE.exit: ; preds = %4
  %7 = tail call noundef ptr @_ZNK5clang4Decl15getFunctionTypeEb(ptr noundef nonnull align 8 dereferenceable(33) %3, i1 noundef zeroext false) #18
  %.not = icmp eq ptr %7, null
  br i1 %.not, label %_ZN12_GLOBAL__N_114isFunctionLikeEPKN5clang4DeclE.exit.thread, label %18

_ZN12_GLOBAL__N_114isFunctionLikeEPKN5clang4DeclE.exit.thread: ; preds = %4, %_ZN12_GLOBAL__N_114isFunctionLikeEPKN5clang4DeclE.exit
  %8 = getelementptr inbounds i8, ptr %1, i64 8
  %9 = getelementptr inbounds nuw i8, ptr %2, i64 16
  %.sroa.0.0.copyload.i.i = load i32, ptr %9, align 8
  call void @_ZN5clang8SemaBase4DiagENS_14SourceLocationEjb(ptr dead_on_unwind nonnull writable sret(%"class.clang::SemaBase::SemaDiagnosticBuilder") align 8 %5, ptr noundef nonnull align 8 dereferenceable(8) %8, i32 %.sroa.0.0.copyload.i.i, i32 noundef 6180, i1 noundef zeroext false) #18
  %10 = call noundef nonnull align 8 dereferenceable(96) ptr @_ZN5clanglsINS_10ParsedAttrEEERKNS_8SemaBase21SemaDiagnosticBuilderES5_RKT_(ptr noundef nonnull align 8 dereferenceable(96) %5, ptr noundef nonnull align 8 dereferenceable(72) %2)
  %11 = getelementptr inbounds nuw i8, ptr %2, i64 28
  %12 = load i32, ptr %11, align 4
  %13 = lshr i32 %12, 25
  %14 = trunc nuw nsw i32 %13 to i8
  %15 = and i8 %14, 1
  store i8 %15, ptr %6, align 1
  %16 = call noundef nonnull align 8 dereferenceable(96) ptr @_ZNK5clang8SemaBase21SemaDiagnosticBuilderlsIbvEERKS1_OT_(ptr noundef nonnull align 8 dereferenceable(96) %10, ptr noundef nonnull align 1 dereferenceable(1) %6)
  %17 = call noundef nonnull align 8 dereferenceable(96) ptr @_ZN5clanglsIA32_cEERKNS_8SemaBase21SemaDiagnosticBuilderES5_RKT_(ptr noundef nonnull align 8 dereferenceable(96) %16, ptr noundef nonnull align 1 dereferenceable(32) @.str.1346)
  call void @_ZN5clang8SemaBase21SemaDiagnosticBuilderD1Ev(ptr noundef nonnull align 8 dereferenceable(96) %5) #18
  br label %18

18:                                               ; preds = %_ZN12_GLOBAL__N_114isFunctionLikeEPKN5clang4DeclE.exit, %_ZN12_GLOBAL__N_114isFunctionLikeEPKN5clang4DeclE.exit.thread
  %.0.i8 = phi i1 [ true, %_ZN12_GLOBAL__N_114isFunctionLikeEPKN5clang4DeclE.exit ], [ false, %_ZN12_GLOBAL__N_114isFunctionLikeEPKN5clang4DeclE.exit.thread ]
  ret i1 %.0.i8
}